target datalayout = "e-m:e-p270:32:32-p271:32:32-p272:64:64-i64:64-i128:128-f80:128-n8:16:32:64-S128"
target triple = "x86_64-pc-linux-gnu"

%struct.int_stack_t = type { ptr, i64, i64, i64 }

@stderr = external global ptr, align 8
@.str.6 = private unnamed_addr constant [20 x i8] c"realloc failed: %s\0A\00", align 1

; Function Attrs: inlinehint nounwind uwtable
define internal i32 @int_stack_try_append(ptr noundef %0, i32 noundef %1) #3 {
  %3 = alloca i32, align 4
  %4 = alloca ptr, align 8
  %5 = alloca i32, align 4
  %6 = alloca i64, align 8
  %7 = alloca i32, align 4
  %8 = alloca ptr, align 8
  %9 = alloca i64, align 8
  %10 = alloca i64, align 8
  %11 = alloca i64, align 8
  store ptr %0, ptr %4, align 8, !tbaa !8
  store i32 %1, ptr %5, align 4, !tbaa !4
  %12 = load ptr, ptr %4, align 8, !tbaa !8
  %13 = getelementptr inbounds nuw %struct.int_stack_t, ptr %12, i32 0, i32 2
  %14 = load i64, ptr %13, align 8, !tbaa !80
  %15 = load ptr, ptr %4, align 8, !tbaa !8
  %16 = getelementptr inbounds nuw %struct.int_stack_t, ptr %15, i32 0, i32 3
  %17 = load i64, ptr %16, align 8, !tbaa !95
  %18 = icmp eq i64 %14, %17
  br i1 %18, label %19, label %113

19:                                               ; preds = %2
  call void @llvm.lifetime.start.p0(i64 8, ptr %6) #11
  %20 = load ptr, ptr %4, align 8, !tbaa !8
  %21 = getelementptr inbounds nuw %struct.int_stack_t, ptr %20, i32 0, i32 3
  %22 = load i64, ptr %21, align 8, !tbaa !95
  %23 = icmp eq i64 %22, 0
  br i1 %23, label %24, label %25

24:                                               ; preds = %19
  br label %30

25:                                               ; preds = %19
  %26 = load ptr, ptr %4, align 8, !tbaa !8
  %27 = getelementptr inbounds nuw %struct.int_stack_t, ptr %26, i32 0, i32 3
  %28 = load i64, ptr %27, align 8, !tbaa !95
  %29 = mul i64 %28, 2
  br label %30

30:                                               ; preds = %25, %24
  %31 = phi i64 [ 1, %24 ], [ %29, %25 ]
  store i64 %31, ptr %6, align 8, !tbaa !46
  %32 = load i64, ptr %6, align 8, !tbaa !46
  %33 = udiv i64 -1, %32
  %34 = icmp ult i64 %33, 4
  br i1 %34, label %35, label %36

35:                                               ; preds = %30
  store i32 34, ptr %3, align 4
  store i32 1, ptr %7, align 4
  br label %110

36:                                               ; preds = %30
  call void @llvm.lifetime.start.p0(i64 8, ptr %8) #11
  %37 = load ptr, ptr %4, align 8, !tbaa !8
  %38 = getelementptr inbounds nuw %struct.int_stack_t, ptr %37, i32 0, i32 0
  %39 = load ptr, ptr %38, align 8, !tbaa !94
  %40 = load i64, ptr %6, align 8, !tbaa !46
  %41 = mul i64 %40, 4
  %42 = call ptr @realloc(ptr noundef %39, i64 noundef %41) #15
  store ptr %42, ptr %8, align 8, !tbaa !38
  %43 = load ptr, ptr %8, align 8, !tbaa !38
  %44 = icmp eq ptr %43, null
  br i1 %44, label %45, label %46

45:                                               ; preds = %36
  store i32 12, ptr %3, align 4
  store i32 1, ptr %7, align 4
  br label %109

46:                                               ; preds = %36
  %47 = load ptr, ptr %8, align 8, !tbaa !38
  %48 = load ptr, ptr %4, align 8, !tbaa !8
  %49 = getelementptr inbounds nuw %struct.int_stack_t, ptr %48, i32 0, i32 3
  %50 = load i64, ptr %49, align 8, !tbaa !95
  %51 = getelementptr inbounds nuw i32, ptr %47, i64 %50
  %52 = load i64, ptr %6, align 8, !tbaa !46
  %53 = load ptr, ptr %4, align 8, !tbaa !8
  %54 = getelementptr inbounds nuw %struct.int_stack_t, ptr %53, i32 0, i32 3
  %55 = load i64, ptr %54, align 8, !tbaa !95
  %56 = sub i64 %52, %55
  %57 = mul i64 %56, 4
  call void @llvm.memset.p0.i64(ptr align 4 %51, i8 0, i64 %57, i1 false)
  br label %58

58:                                               ; preds = %46
  br label %59

59:                                               ; preds = %58
  br label %60

60:                                               ; preds = %59
  %61 = load ptr, ptr %4, align 8, !tbaa !8
  %62 = getelementptr inbounds nuw %struct.int_stack_t, ptr %61, i32 0, i32 1
  %63 = load i64, ptr %62, align 8, !tbaa !82
  %64 = load ptr, ptr %4, align 8, !tbaa !8
  %65 = getelementptr inbounds nuw %struct.int_stack_t, ptr %64, i32 0, i32 2
  %66 = load i64, ptr %65, align 8, !tbaa !80
  %67 = add i64 %63, %66
  %68 = load ptr, ptr %4, align 8, !tbaa !8
  %69 = getelementptr inbounds nuw %struct.int_stack_t, ptr %68, i32 0, i32 3
  %70 = load i64, ptr %69, align 8, !tbaa !95
  %71 = icmp ugt i64 %67, %70
  br i1 %71, label %72, label %102

72:                                               ; preds = %60
  call void @llvm.lifetime.start.p0(i64 8, ptr %9) #11
  %73 = load ptr, ptr %4, align 8, !tbaa !8
  %74 = getelementptr inbounds nuw %struct.int_stack_t, ptr %73, i32 0, i32 3
  %75 = load i64, ptr %74, align 8, !tbaa !95
  %76 = load ptr, ptr %4, align 8, !tbaa !8
  %77 = getelementptr inbounds nuw %struct.int_stack_t, ptr %76, i32 0, i32 1
  %78 = load i64, ptr %77, align 8, !tbaa !82
  %79 = sub i64 %75, %78
  store i64 %79, ptr %9, align 8, !tbaa !46
  call void @llvm.lifetime.start.p0(i64 8, ptr %10) #11
  %80 = load i64, ptr %6, align 8, !tbaa !46
  %81 = load i64, ptr %9, align 8, !tbaa !46
  %82 = sub i64 %80, %81
  store i64 %82, ptr %10, align 8, !tbaa !46
  br label %83

83:                                               ; preds = %72
  br label %84

84:                                               ; preds = %83
  br label %85

85:                                               ; preds = %84
  %86 = load ptr, ptr %8, align 8, !tbaa !38
  %87 = load i64, ptr %10, align 8, !tbaa !46
  %88 = getelementptr inbounds nuw i32, ptr %86, i64 %87
  %89 = load ptr, ptr %8, align 8, !tbaa !38
  %90 = load ptr, ptr %4, align 8, !tbaa !8
  %91 = getelementptr inbounds nuw %struct.int_stack_t, ptr %90, i32 0, i32 1
  %92 = load i64, ptr %91, align 8, !tbaa !82
  %93 = getelementptr inbounds nuw i32, ptr %89, i64 %92
  %94 = load i64, ptr %9, align 8, !tbaa !46
  %95 = mul i64 %94, 4
  call void @llvm.memmove.p0.p0.i64(ptr align 4 %88, ptr align 4 %93, i64 %95, i1 false)
  br label %96

96:                                               ; preds = %85
  br label %97

97:                                               ; preds = %96
  br label %98

98:                                               ; preds = %97
  %99 = load i64, ptr %10, align 8, !tbaa !46
  %100 = load ptr, ptr %4, align 8, !tbaa !8
  %101 = getelementptr inbounds nuw %struct.int_stack_t, ptr %100, i32 0, i32 1
  store i64 %99, ptr %101, align 8, !tbaa !82
  call void @llvm.lifetime.end.p0(i64 8, ptr %10) #11
  call void @llvm.lifetime.end.p0(i64 8, ptr %9) #11
  br label %102

102:                                              ; preds = %98, %60
  %103 = load ptr, ptr %8, align 8, !tbaa !38
  %104 = load ptr, ptr %4, align 8, !tbaa !8
  %105 = getelementptr inbounds nuw %struct.int_stack_t, ptr %104, i32 0, i32 0
  store ptr %103, ptr %105, align 8, !tbaa !94
  %106 = load i64, ptr %6, align 8, !tbaa !46
  %107 = load ptr, ptr %4, align 8, !tbaa !8
  %108 = getelementptr inbounds nuw %struct.int_stack_t, ptr %107, i32 0, i32 3
  store i64 %106, ptr %108, align 8, !tbaa !95
  store i32 0, ptr %7, align 4
  br label %109

109:                                              ; preds = %102, %45
  call void @llvm.lifetime.end.p0(i64 8, ptr %8) #11
  br label %110

110:                                              ; preds = %109, %35
  call void @llvm.lifetime.end.p0(i64 8, ptr %6) #11
  %111 = load i32, ptr %7, align 4
  switch i32 %111, label %140 [
    i32 0, label %112
    i32 1, label %138
  ]

112:                                              ; preds = %110
  br label %113

113:                                              ; preds = %112, %2
  call void @llvm.lifetime.start.p0(i64 8, ptr %11) #11
  %114 = load ptr, ptr %4, align 8, !tbaa !8
  %115 = getelementptr inbounds nuw %struct.int_stack_t, ptr %114, i32 0, i32 1
  %116 = load i64, ptr %115, align 8, !tbaa !82
  %117 = load ptr, ptr %4, align 8, !tbaa !8
  %118 = getelementptr inbounds nuw %struct.int_stack_t, ptr %117, i32 0, i32 2
  %119 = load i64, ptr %118, align 8, !tbaa !80
  %120 = add i64 %116, %119
  %121 = load ptr, ptr %4, align 8, !tbaa !8
  %122 = getelementptr inbounds nuw %struct.int_stack_t, ptr %121, i32 0, i32 3
  %123 = load i64, ptr %122, align 8, !tbaa !95
  %124 = urem i64 %120, %123
  store i64 %124, ptr %11, align 8, !tbaa !46
  br label %125

125:                                              ; preds = %113
  br label %126

126:                                              ; preds = %125
  br label %127

127:                                              ; preds = %126
  %128 = load i32, ptr %5, align 4, !tbaa !4
  %129 = load ptr, ptr %4, align 8, !tbaa !8
  %130 = getelementptr inbounds nuw %struct.int_stack_t, ptr %129, i32 0, i32 0
  %131 = load ptr, ptr %130, align 8, !tbaa !94
  %132 = load i64, ptr %11, align 8, !tbaa !46
  %133 = getelementptr inbounds nuw i32, ptr %131, i64 %132
  store i32 %128, ptr %133, align 4, !tbaa !4
  %134 = load ptr, ptr %4, align 8, !tbaa !8
  %135 = getelementptr inbounds nuw %struct.int_stack_t, ptr %134, i32 0, i32 2
  %136 = load i64, ptr %135, align 8, !tbaa !80
  %137 = add i64 %136, 1
  store i64 %137, ptr %135, align 8, !tbaa !80
  store i32 0, ptr %3, align 4
  store i32 1, ptr %7, align 4
  call void @llvm.lifetime.end.p0(i64 8, ptr %11) #11
  br label %138

138:                                              ; preds = %127, %110
  %139 = load i32, ptr %3, align 4
  ret i32 %139

140:                                              ; preds = %110
  unreachable
}

; Function Attrs: inlinehint nounwind uwtable
define internal void @int_stack_append(ptr noundef %0, i32 noundef %1) #3 {
  %3 = alloca ptr, align 8
  %4 = alloca i32, align 4
  %5 = alloca i32, align 4
  store ptr %0, ptr %3, align 8, !tbaa !8
  store i32 %1, ptr %4, align 4, !tbaa !4
  call void @llvm.lifetime.start.p0(i64 4, ptr %5) #11
  %6 = load ptr, ptr %3, align 8, !tbaa !8
  %7 = load i32, ptr %4, align 4, !tbaa !4
  %8 = call i32 @int_stack_try_append(ptr noundef %6, i32 noundef %7)
  store i32 %8, ptr %5, align 4, !tbaa !4
  %9 = load i32, ptr %5, align 4, !tbaa !4
  %10 = icmp ne i32 %9, 0
  br i1 %10, label %11, label %16

11:                                               ; preds = %2
  %12 = load ptr, ptr @stderr, align 8, !tbaa !14
  %13 = load i32, ptr %5, align 4, !tbaa !4
  %14 = call ptr @strerror(i32 noundef %13) #11
  %15 = call i32 (ptr, ptr, ...) @fprintf(ptr noundef %12, ptr noundef @.str.6, ptr noundef %14) #11
  call void @graphviz_exit(i32 noundef 1) #12
  unreachable

16:                                               ; preds = %2
  call void @llvm.lifetime.end.p0(i64 4, ptr %5) #11
  ret void
}

; Function Attrs: inlinehint nounwind uwtable
define internal void @int_stack_push_back(ptr noundef %0, i32 noundef %1) #3 {
  %3 = alloca ptr, align 8
  %4 = alloca i32, align 4
  store ptr %0, ptr %3, align 8, !tbaa !8
  store i32 %1, ptr %4, align 4, !tbaa !4
  %5 = load ptr, ptr %3, align 8, !tbaa !8
  %6 = load i32, ptr %4, align 4, !tbaa !4
  call void @int_stack_append(ptr noundef %5, i32 noundef %6)
  ret void
}

; Function Attrs: nounwind uwtable
define internal void @push(ptr noundef %0, i32 noundef %1, i32 noundef %2) #0 {
  %4 = alloca ptr, align 8
  %5 = alloca i32, align 4
  %6 = alloca i32, align 4
  store ptr %0, ptr %4, align 8, !tbaa !8
  store i32 %1, ptr %5, align 4, !tbaa !4
  store i32 %2, ptr %6, align 4, !tbaa !4
  %7 = load ptr, ptr %4, align 8, !tbaa !8
  %8 = load i32, ptr %5, align 4, !tbaa !4
  call void @int_stack_push_back(ptr noundef %7, i32 noundef %8)
  %9 = load ptr, ptr %4, align 8, !tbaa !8
  %10 = load i32, ptr %6, align 4, !tbaa !4
  call void @int_stack_push_back(ptr noundef %9, i32 noundef %10)
  ret void
}