; Function Attrs: nounwind uwtable
define internal fastcc void @push(ptr noundef captures(none) %0, i32 noundef %1, i32 noundef %2) unnamed_addr #0 {
  %4 = getelementptr inbounds nuw i8, ptr %0, i64 16
  %5 = load i64, ptr %4, align 8, !tbaa !77
  %6 = getelementptr inbounds nuw i8, ptr %0, i64 24
  %7 = load i64, ptr %6, align 8, !tbaa !76
  %8 = icmp eq i64 %5, %7
  br i1 %8, label %9, label %._crit_edge.i.i.i

._crit_edge.i.i.i:                                ; preds = %3
  %.phi.trans.insert.i.i.i = getelementptr inbounds nuw i8, ptr %0, i64 8
  %.pre.i.i.i = load i64, ptr %.phi.trans.insert.i.i.i, align 8, !tbaa !75
  %.pre46.i.i.i = load ptr, ptr %0, align 8, !tbaa !74
  br label %int_stack_push_back.exit

9:                                                ; preds = %3
  %10 = icmp eq i64 %5, 0
  %11 = shl i64 %5, 1
  %spec.select.i.i.i = select i1 %10, i64 1, i64 %11
  %mul.ov.i.i.i = icmp ugt i64 %spec.select.i.i.i, 4611686018427387903
  br i1 %mul.ov.i.i.i, label %35, label %12

12:                                               ; preds = %9
  %13 = load ptr, ptr %0, align 8, !tbaa !74
  %14 = shl nuw i64 %spec.select.i.i.i, 2
  %15 = tail call ptr @realloc(ptr noundef %13, i64 noundef %14) #20
  %16 = icmp eq ptr %15, null
  br i1 %16, label %35, label %17

17:                                               ; preds = %12
  %18 = load i64, ptr %6, align 8, !tbaa !76
  %19 = getelementptr inbounds nuw i32, ptr %15, i64 %18
  %20 = sub i64 %spec.select.i.i.i, %18
  %21 = shl i64 %20, 2
  tail call void @llvm.memset.p0.i64(ptr nonnull align 4 %19, i8 0, i64 %21, i1 false)
  %22 = getelementptr inbounds nuw i8, ptr %0, i64 8
  %23 = load i64, ptr %22, align 8, !tbaa !75
  %24 = load i64, ptr %4, align 8, !tbaa !77
  %25 = add i64 %24, %23
  %26 = icmp ugt i64 %25, %18
  br i1 %26, label %27, label %33

27:                                               ; preds = %17
  %28 = sub i64 %18, %23
  %29 = sub i64 %spec.select.i.i.i, %28
  %30 = getelementptr inbounds nuw i32, ptr %15, i64 %29
  %31 = getelementptr inbounds nuw i32, ptr %15, i64 %23
  %32 = shl i64 %28, 2
  tail call void @llvm.memmove.p0.p0.i64(ptr nonnull align 4 %30, ptr nonnull align 4 %31, i64 %32, i1 false)
  store i64 %29, ptr %22, align 8, !tbaa !75
  br label %33

33:                                               ; preds = %27, %17
  %34 = phi i64 [ %23, %17 ], [ %29, %27 ]
  store ptr %15, ptr %0, align 8, !tbaa !74
  store i64 %spec.select.i.i.i, ptr %6, align 8, !tbaa !76
  br label %int_stack_push_back.exit

35:                                               ; preds = %12, %9
  %.2.i.ph.i.i = phi i32 [ 34, %9 ], [ 12, %12 ]
  %36 = load ptr, ptr @stderr, align 8, !tbaa !8
  %37 = tail call ptr @strerror(i32 noundef %.2.i.ph.i.i) #15
  %38 = tail call i32 (ptr, ptr, ...) @fprintf(ptr noundef %36, ptr noundef nonnull @.str.6, ptr noundef %37) #16
  tail call fastcc void @graphviz_exit() #18
  unreachable

int_stack_push_back.exit:                         ; preds = %._crit_edge.i.i.i, %33
  %39 = phi ptr [ %.pre46.i.i.i, %._crit_edge.i.i.i ], [ %15, %33 ]
  %40 = phi i64 [ %7, %._crit_edge.i.i.i ], [ %spec.select.i.i.i, %33 ]
  %41 = phi i64 [ %5, %._crit_edge.i.i.i ], [ %24, %33 ]
  %.pre.i.i.i5 = phi i64 [ %.pre.i.i.i, %._crit_edge.i.i.i ], [ %34, %33 ]
  %42 = add i64 %.pre.i.i.i5, %41
  %43 = urem i64 %42, %40
  %44 = getelementptr inbounds nuw i32, ptr %39, i64 %43
  store i32 %1, ptr %44, align 4, !tbaa !30
  %45 = add i64 %41, 1
  store i64 %45, ptr %4, align 8, !tbaa !77
  %46 = icmp eq i64 %45, %40
  br i1 %46, label %47, label %int_stack_push_back.exit10

47:                                               ; preds = %int_stack_push_back.exit
  %48 = shl i64 %40, 1
  %mul.ov.i.i.i8 = icmp ugt i64 %48, 4611686018427387903
  br i1 %mul.ov.i.i.i8, label %71, label %49

49:                                               ; preds = %47
  %50 = shl i64 %40, 3
  %51 = tail call ptr @realloc(ptr noundef nonnull %39, i64 noundef %50) #20
  %52 = icmp eq ptr %51, null
  br i1 %52, label %71, label %53

53:                                               ; preds = %49
  %54 = load i64, ptr %6, align 8, !tbaa !76
  %55 = getelementptr inbounds nuw i32, ptr %51, i64 %54
  %56 = sub i64 %48, %54
  %57 = shl i64 %56, 2
  tail call void @llvm.memset.p0.i64(ptr nonnull align 4 %55, i8 0, i64 %57, i1 false)
  %58 = getelementptr inbounds nuw i8, ptr %0, i64 8
  %59 = load i64, ptr %58, align 8, !tbaa !75
  %60 = load i64, ptr %4, align 8, !tbaa !77
  %61 = add i64 %60, %59
  %62 = icmp ugt i64 %61, %54
  br i1 %62, label %63, label %69

63:                                               ; preds = %53
  %64 = sub i64 %54, %59
  %65 = sub i64 %48, %64
  %66 = getelementptr inbounds nuw i32, ptr %51, i64 %65
  %67 = getelementptr inbounds nuw i32, ptr %51, i64 %59
  %68 = shl i64 %64, 2
  tail call void @llvm.memmove.p0.p0.i64(ptr nonnull align 4 %66, ptr nonnull align 4 %67, i64 %68, i1 false)
  store i64 %65, ptr %58, align 8, !tbaa !75
  br label %69

69:                                               ; preds = %63, %53
  %70 = phi i64 [ %59, %53 ], [ %65, %63 ]
  store ptr %51, ptr %0, align 8, !tbaa !74
  store i64 %48, ptr %6, align 8, !tbaa !76
  br label %int_stack_push_back.exit10

71:                                               ; preds = %49, %47
  %.2.i.ph.i.i9 = phi i32 [ 34, %47 ], [ 12, %49 ]
  %72 = load ptr, ptr @stderr, align 8, !tbaa !8
  %73 = tail call ptr @strerror(i32 noundef %.2.i.ph.i.i9) #15
  %74 = tail call i32 (ptr, ptr, ...) @fprintf(ptr noundef %72, ptr noundef nonnull @.str.6, ptr noundef %73) #16
  tail call fastcc void @graphviz_exit() #18
  unreachable

int_stack_push_back.exit10:                       ; preds = %int_stack_push_back.exit, %69
  %75 = phi ptr [ %51, %69 ], [ %39, %int_stack_push_back.exit ]
  %76 = phi i64 [ %48, %69 ], [ %40, %int_stack_push_back.exit ]
  %77 = phi i64 [ %60, %69 ], [ %45, %int_stack_push_back.exit ]
  %78 = phi i64 [ %70, %69 ], [ %.pre.i.i.i5, %int_stack_push_back.exit ]
  %79 = add i64 %78, %77
  %80 = urem i64 %79, %76
  %81 = getelementptr inbounds nuw i32, ptr %75, i64 %80
  store i32 %2, ptr %81, align 4, !tbaa !30
  %82 = add i64 %77, 1
  store i64 %82, ptr %4, align 8, !tbaa !77
  ret void
}